; Function Attrs: nounwind uwtable
define range(i64 -1, -9223372036854775808) i64 @H5Screate(i32 noundef %0) local_unnamed_addr #0 {
  %2 = alloca %struct.H5CX_node_t, align 8
  call void @llvm.lifetime.start.p0(i64 480, ptr nonnull %2) #10
  call void @llvm.memset.p0.i64(ptr noundef nonnull align 8 dereferenceable(480) %2, i8 0, i64 480, i1 false)
  %3 = load i8, ptr @H5_libinit_g, align 1, !tbaa !3, !range !7, !noundef !8
  %4 = trunc nuw i8 %3 to i1
  %5 = load i8, ptr @H5_libterm_g, align 1, !range !7
  %6 = trunc nuw i8 %5 to i1
  %7 = select i1 %4, i1 true, i1 %6
  br i1 %7, label %15, label %8, !prof !9

8:                                                ; preds = %1
  %9 = tail call i32 @H5_init_library() #10
  %10 = icmp slt i32 %9, 0
  br i1 %10, label %11, label %._crit_edge, !prof !31

._crit_edge:                                      ; preds = %8
  %.pre = load i8, ptr @H5_libterm_g, align 1, !range !7
  br label %15

11:                                               ; preds = %8
  %12 = load i64, ptr @H5E_FUNC_g, align 8, !tbaa !10
  %13 = load i64, ptr @H5E_CANTINIT_g, align 8, !tbaa !10
  %14 = tail call i32 (ptr, ptr, i32, i64, i64, ptr, ...) @H5E_printf_stack(ptr noundef nonnull @.str.3, ptr noundef nonnull @__func__.H5Screate, i32 noundef 376, i64 noundef %12, i64 noundef %13, ptr noundef nonnull @.str.11) #10
  br label %.thread48

15:                                               ; preds = %._crit_edge, %1
  %16 = phi i8 [ %.pre, %._crit_edge ], [ %5, %1 ]
  %17 = load i8, ptr @H5S_init_g, align 1, !tbaa !3, !range !7, !noundef !8
  %18 = trunc nuw i8 %17 to i1
  %19 = trunc nuw i8 %16 to i1
  %20 = select i1 %18, i1 true, i1 %19
  br i1 %20, label %28, label %21, !prof !9

21:                                               ; preds = %15
  store i8 1, ptr @H5S_init_g, align 1, !tbaa !3
  %22 = tail call i32 @H5S__init_package()
  %23 = icmp slt i32 %22, 0
  br i1 %23, label %24, label %28, !prof !32

24:                                               ; preds = %21
  store i8 0, ptr @H5S_init_g, align 1, !tbaa !3
  %25 = load i64, ptr @H5E_FUNC_g, align 8, !tbaa !10
  %26 = load i64, ptr @H5E_CANTINIT_g, align 8, !tbaa !10
  %27 = tail call i32 (ptr, ptr, i32, i64, i64, ptr, ...) @H5E_printf_stack(ptr noundef nonnull @.str.3, ptr noundef nonnull @__func__.H5Screate, i32 noundef 376, i64 noundef %25, i64 noundef %26, ptr noundef nonnull @.str.4) #10
  br label %.thread48

28:                                               ; preds = %15, %21
  %29 = call i32 @H5CX_push(ptr noundef nonnull %2) #10
  %30 = icmp slt i32 %29, 0
  br i1 %30, label %31, label %35, !prof !31

31:                                               ; preds = %28
  %32 = load i64, ptr @H5E_FUNC_g, align 8, !tbaa !10
  %33 = load i64, ptr @H5E_CANTSET_g, align 8, !tbaa !10
  %34 = call i32 (ptr, ptr, i32, i64, i64, ptr, ...) @H5E_printf_stack(ptr noundef nonnull @.str.3, ptr noundef nonnull @__func__.H5Screate, i32 noundef 376, i64 noundef %32, i64 noundef %33, ptr noundef nonnull @.str.12) #10
  br label %.thread48

35:                                               ; preds = %28
  %36 = call i32 @H5E_clear_stack() #10
  %or.cond = icmp ugt i32 %0, 2
  br i1 %or.cond, label %37, label %41

37:                                               ; preds = %35
  %38 = load i64, ptr @H5E_ARGS_g, align 8, !tbaa !10
  %39 = load i64, ptr @H5E_BADVALUE_g, align 8, !tbaa !10
  %40 = call i32 (ptr, ptr, i32, i64, i64, ptr, ...) @H5E_printf_stack(ptr noundef nonnull @.str.3, ptr noundef nonnull @__func__.H5Screate, i32 noundef 380, i64 noundef %38, i64 noundef %39, ptr noundef nonnull @.str.13) #10
  br label %.thread57

41:                                               ; preds = %35
  %42 = call ptr @H5S_create(i32 noundef %0)
  %43 = icmp eq ptr %42, null
  br i1 %43, label %44, label %48

44:                                               ; preds = %41
  %45 = load i64, ptr @H5E_DATASPACE_g, align 8, !tbaa !10
  %46 = load i64, ptr @H5E_CANTCREATE_g, align 8, !tbaa !10
  %47 = call i32 (ptr, ptr, i32, i64, i64, ptr, ...) @H5E_printf_stack(ptr noundef nonnull @.str.3, ptr noundef nonnull @__func__.H5Screate, i32 noundef 383, i64 noundef %45, i64 noundef %46, ptr noundef nonnull @.str.14) #10
  br label %.thread57

48:                                               ; preds = %41
  %49 = call i64 @H5I_register(i32 noundef 4, ptr noundef nonnull %42, i1 noundef zeroext true) #10
  %50 = icmp slt i64 %49, 0
  br i1 %50, label %51, label %63

51:                                               ; preds = %48
  %52 = load i64, ptr @H5E_ID_g, align 8, !tbaa !10
  %53 = load i64, ptr @H5E_CANTREGISTER_g, align 8, !tbaa !10
  %54 = call i32 (ptr, ptr, i32, i64, i64, ptr, ...) @H5E_printf_stack(ptr noundef nonnull @.str.3, ptr noundef nonnull @__func__.H5Screate, i32 noundef 387, i64 noundef %52, i64 noundef %53, ptr noundef nonnull @.str.15) #10
  %55 = call i32 @H5S_close(ptr noundef nonnull %42)
  %56 = icmp slt i32 %55, 0
  br i1 %56, label %57, label %.thread53

57:                                               ; preds = %51
  %58 = load i64, ptr @H5E_DATASPACE_g, align 8, !tbaa !10
  %59 = load i64, ptr @H5E_CANTRELEASE_g, align 8, !tbaa !10
  %60 = call i32 (ptr, ptr, i32, i64, i64, ptr, ...) @H5E_printf_stack(ptr noundef nonnull @.str.3, ptr noundef nonnull @__func__.H5Screate, i32 noundef 392, i64 noundef %58, i64 noundef %59, ptr noundef nonnull @.str.10) #10
  br label %.thread53

.thread53:                                        ; preds = %51, %57
  %61 = call i32 @H5CX_pop(i1 noundef zeroext true) #10
  br label %.thread48

.thread57:                                        ; preds = %37, %44
  %62 = call i32 @H5CX_pop(i1 noundef zeroext true) #10
  br label %.thread48

63:                                               ; preds = %48
  %64 = call i32 @H5CX_pop(i1 noundef zeroext true) #10
  br label %66

.thread48:                                        ; preds = %11, %24, %31, %.thread57, %.thread53
  %65 = call i32 @H5E_dump_api_stack() #10
  br label %66

66:                                               ; preds = %63, %.thread48
  %.1213851 = phi i64 [ -1, %.thread48 ], [ %49, %63 ]
  call void @llvm.lifetime.end.p0(i64 480, ptr nonnull %2) #10
  ret i64 %.1213851
}